; Function Attrs: nounwind uwtable
define dso_local void @reftable_merged_table_free(ptr noundef %0) local_unnamed_addr #0 {
  %.not = icmp eq ptr %0, null
  br i1 %.not, label %3, label %2

2:                                                ; preds = %1
  tail call void @reftable_free(ptr noundef nonnull %0) #6
  br label %3

3:                                                ; preds = %1, %2
  ret void
}